; Function Attrs: nounwind uwtable
define zeroext i8 @l___private_Std_Time_Zoned_TimeZone_0__Std_Time_decEqTimeZone____x40_Std_Time_Zoned_TimeZone___hyg_152_(ptr noundef readonly captures(none) %0, ptr noundef readonly captures(none) %1) local_unnamed_addr #0 {
  %3 = getelementptr inbounds nuw i8, ptr %0, i64 8
  %4 = load ptr, ptr %3, align 8, !tbaa !4
  %5 = getelementptr inbounds nuw i8, ptr %0, i64 16
  %6 = load ptr, ptr %5, align 8, !tbaa !4
  %7 = getelementptr inbounds nuw i8, ptr %0, i64 24
  %8 = load ptr, ptr %7, align 8, !tbaa !4
  %9 = getelementptr i8, ptr %0, i64 32
  %.val25 = load i8, ptr %9, align 1, !tbaa !13
  %10 = getelementptr inbounds nuw i8, ptr %1, i64 8
  %11 = load ptr, ptr %10, align 8, !tbaa !4
  %12 = getelementptr inbounds nuw i8, ptr %1, i64 16
  %13 = load ptr, ptr %12, align 8, !tbaa !4
  %14 = getelementptr inbounds nuw i8, ptr %1, i64 24
  %15 = load ptr, ptr %14, align 8, !tbaa !4
  %16 = getelementptr i8, ptr %1, i64 32
  %.val = load i8, ptr %16, align 1, !tbaa !13
  %17 = ptrtoint ptr %4 to i64
  %18 = ptrtoint ptr %11 to i64
  %19 = and i64 %17, 1
  %20 = and i64 %19, %18
  %or.cond.not.i.i = icmp eq i64 %20, 0
  br i1 %or.cond.not.i.i, label %lean_int_dec_eq.exit, label %21, !prof !15

21:                                               ; preds = %2
  %22 = icmp eq ptr %4, %11
  br i1 %22, label %24, label %lean_string_dec_eq.exit.thread

lean_int_dec_eq.exit:                             ; preds = %2
  %23 = tail call zeroext i1 @lean_int_big_eq(ptr noundef %4, ptr noundef %11) #3
  br i1 %23, label %24, label %lean_string_dec_eq.exit.thread

24:                                               ; preds = %21, %lean_int_dec_eq.exit
  %25 = icmp eq ptr %6, %13
  br i1 %25, label %lean_string_dec_eq.exit.thread29, label %26

26:                                               ; preds = %24
  %27 = getelementptr i8, ptr %6, i64 8
  %.val.i.i = load i64, ptr %27, align 8, !tbaa !11
  %28 = getelementptr i8, ptr %13, i64 8
  %.val7.i.i = load i64, ptr %28, align 8, !tbaa !11
  %29 = icmp eq i64 %.val.i.i, %.val7.i.i
  br i1 %29, label %lean_string_dec_eq.exit, label %lean_string_dec_eq.exit.thread

lean_string_dec_eq.exit:                          ; preds = %26
  %30 = tail call zeroext i1 @lean_string_eq_cold(ptr noundef nonnull %6, ptr noundef nonnull %13) #3
  br i1 %30, label %lean_string_dec_eq.exit.thread29, label %lean_string_dec_eq.exit.thread

lean_string_dec_eq.exit.thread29:                 ; preds = %24, %lean_string_dec_eq.exit
  %31 = icmp eq ptr %8, %15
  br i1 %31, label %lean_string_dec_eq.exit28.thread30, label %32

32:                                               ; preds = %lean_string_dec_eq.exit.thread29
  %33 = getelementptr i8, ptr %8, i64 8
  %.val.i.i26 = load i64, ptr %33, align 8, !tbaa !11
  %34 = getelementptr i8, ptr %15, i64 8
  %.val7.i.i27 = load i64, ptr %34, align 8, !tbaa !11
  %35 = icmp eq i64 %.val.i.i26, %.val7.i.i27
  br i1 %35, label %lean_string_dec_eq.exit28, label %lean_string_dec_eq.exit.thread

lean_string_dec_eq.exit28:                        ; preds = %32
  %36 = tail call zeroext i1 @lean_string_eq_cold(ptr noundef nonnull %8, ptr noundef nonnull %15) #3
  br i1 %36, label %lean_string_dec_eq.exit28.thread30, label %lean_string_dec_eq.exit.thread

lean_string_dec_eq.exit28.thread30:               ; preds = %lean_string_dec_eq.exit.thread29, %lean_string_dec_eq.exit28
  %37 = icmp eq i8 %.val25, 0
  br i1 %37, label %38, label %lean_string_dec_eq.exit.thread

38:                                               ; preds = %lean_string_dec_eq.exit28.thread30
  %39 = icmp eq i8 %.val, 0
  %. = zext i1 %39 to i8
  br label %lean_string_dec_eq.exit.thread

lean_string_dec_eq.exit.thread:                   ; preds = %21, %32, %26, %lean_string_dec_eq.exit, %lean_string_dec_eq.exit28.thread30, %38, %lean_string_dec_eq.exit28, %lean_int_dec_eq.exit
  %.0 = phi i8 [ 0, %lean_int_dec_eq.exit ], [ 0, %lean_string_dec_eq.exit ], [ 0, %lean_string_dec_eq.exit28 ], [ %., %38 ], [ %.val, %lean_string_dec_eq.exit28.thread30 ], [ 0, %26 ], [ 0, %32 ], [ 0, %21 ]
  ret i8 %.0
}